target datalayout = "e-m:e-p270:32:32-p271:32:32-p272:64:64-i64:64-i128:128-f80:128-n8:16:32:64-S128"
target triple = "x86_64-pc-linux-gnu"

%"class.sat::literal" = type { i32 }
%class.symbol = type { ptr }
%"class.sat::extension" = type { ptr, i8, i32, %class.symbol, ptr }
%class.svector.1 = type { %class.vector.2 }
%class.vector.2 = type { ptr }
%class.statistics = type { %class.svector.3, %class.svector.5 }
%class.svector.3 = type { %class.vector.4 }
%class.vector.4 = type { ptr }
%class.svector.5 = type { %class.vector.6 }
%class.vector.6 = type { ptr }
%"class.sat::clause_allocator" = type { %class.sat_allocator, %class.id_gen }
%class.sat_allocator = type { ptr, i64, %class.ptr_vector.13, ptr, [65 x %class.ptr_vector.15] }
%class.ptr_vector.13 = type { %class.vector.14 }
%class.vector.14 = type { ptr }
%class.ptr_vector.15 = type { %class.vector.16 }
%class.vector.16 = type { ptr }
%class.id_gen = type { i32, %class.svector.1 }
%class.ptr_vector.17 = type { %class.vector.18 }
%class.vector.18 = type { ptr }
%class.svector.11 = type { %class.vector.12 }
%class.vector.12 = type { ptr }
%class.vector.19 = type { ptr }
%class.params_ref = type { ptr }
%"class.std::__cxx11::basic_string" = type { %"struct.std::__cxx11::basic_string<char>::_Alloc_hider", i64, %union.anon }
%"struct.std::__cxx11::basic_string<char>::_Alloc_hider" = type { ptr }
%union.anon = type { i64, [8 x i8] }
%"class.sat::solver" = type { %"class.sat::solver_core", i8, [7 x i8], %"struct.sat::config", %"struct.sat::stats", %class.scoped_ptr.102, %class.scoped_ptr.103, ptr, %"class.sat::drat", [2 x %"class.sat::clause_allocator"], i8, %class.random_gen, %"class.sat::cleaner", %class.svector.110, %"class.sat::model_converter", i8, %"class.sat::simplifier", %"class.sat::scc", %"class.sat::asymm_branch", %"class.sat::probing", i8, [7 x i8], %"class.sat::mus", i8, i8, [6 x i8], %"class.sat::justification", %"class.sat::literal", %class.ptr_vector.17, %class.ptr_vector.17, i32, %class.svector.1, %class.svector.1, %class.svector.1, %class.svector.1, %class.vector.131, %class.svector.110, %class.svector.132, %class.svector.11, %class.svector.11, %class.svector.11, %class.svector.11, %class.svector.11, %class.svector.1, %class.svector.1, i32, %class.svector.63, %class.svector.1, i32, %class.svector.134, %class.svector.134, %class.svector.134, %class.svector.134, %class.svector.134, i32, double, %class.svector.11, %class.svector.11, %class.svector.11, i8, %class.svector.119, i32, i32, i32, i32, i32, i32, %"struct.sat::backoff", i32, i32, %"struct.sat::backoff", %"struct.sat::backoff", %class.var_queue, i32, i32, i32, %class.ema, %class.ema, %class.ema, %class.ema, %class.ema, %class.svector.63, %class.svector.121, %"class.std::__cxx11::basic_string", i8, i8, %class.visit_helper, %class.svector.136, %class.scoped_limit_trail, %class.stopwatch, %class.params_ref, %"struct.sat::no_drat_params", %class.scoped_ptr.138, %class.svector.63, %"class.sat::literal_set", %"class.sat::literal_set", %class.svector.63, i32, i32, i32, i32, i8, ptr, ptr, %class.statistics, i32, i32, i32, i32, i8, i32, i32, i32, i32, i32, i32, i32, double, i32, double, i8, i8, %class.svector.63, i8, %class.svector.134, i32, i32, i32, %class.svector.63, %class.svector.63, %class.svector.119, %class.svector.1, %class.approx_set_tpl, %class.svector.63, %class.svector.63, %class.vector.19, %class.svector.63, %class.svector.129, %class.u_map, %class.svector.63 }
%"class.sat::solver_core" = type { ptr, ptr }
%"struct.sat::config" = type <{ i64, i32, i32, i32, i8, [3 x i8], i32, i32, double, i32, i8, [3 x i8], i32, i8, [3 x i8], i32, [4 x i8], double, double, i32, i32, double, double, i32, [4 x i8], %class.symbol, double, i32, i32, i8, [3 x i8], i32, i32, i8, [3 x i8], i32, i8, [3 x i8], i32, i8, [3 x i8], i32, i8, i8, [2 x i8], i32, i8, i8, i8, i8, i8, i8, i8, i8, i32, i8, i8, i8, i8, i32, double, i32, [4 x i8], double, double, double, double, i32, i8, i8, [2 x i8], double, i8, i8, [2 x i8], i32, double, i32, i32, i32, i32, i32, i32, i32, i32, i8, i8, i8, i8, i32, i32, i8, i8, i8, i8, i8, i8, i8, [5 x i8], %class.symbol, i8, i8, i8, i8, i8, i8, [2 x i8], i32, i32, i32, i8, [3 x i8], double, double, double, double, double, i8, [7 x i8] }>
%"struct.sat::stats" = type { i32, i32, i32, i32, i32, i32, i32, i32, i32, i32, i32, i32, i32, i32, i32, i32, i32, i32, i32, i32, i32 }
%class.scoped_ptr.102 = type { ptr }
%class.scoped_ptr.103 = type { ptr }
%class.random_gen = type { i32 }
%"class.sat::cleaner" = type { ptr, i32, i32, i32, i32 }
%"class.sat::model_converter" = type { %class.vector.112, i32, %class.svector.11, ptr, %class.svector.113 }
%class.vector.112 = type { ptr }
%class.svector.113 = type { %class.vector.114 }
%class.vector.114 = type { ptr }
%"class.sat::simplifier" = type { ptr, i32, %"class.sat::use_list", %"class.sat::ext_use_list", %"class.sat::clause_set", %class.svector.117, i32, %class.tracked_uint_set, i8, %"class.sat::tmp_clause", %class.svector.119, i32, i32, i8, i8, i8, i8, i32, i8, i8, i32, i8, i32, i8, i8, i32, i32, i32, i32, i32, i32, i32, i32, i32, i32, i8, i32, i8, i8, i32, i32, i32, i32, i32, i32, i32, i32, i32, i32, i32, i8, i32, %class.ptr_vector.17, %class.svector.63, %class.svector.121, %class.svector.121, %class.svector.63 }
%"class.sat::use_list" = type { %class.vector.115 }
%class.vector.115 = type { ptr }
%"class.sat::ext_use_list" = type { %class.vector.116 }
%class.vector.116 = type { ptr }
%"class.sat::clause_set" = type { %class.svector.1, %class.ptr_vector.17 }
%class.svector.117 = type { %class.vector.118 }
%class.vector.118 = type { ptr }
%class.tracked_uint_set = type { %class.svector.119, %class.svector.1 }
%"class.sat::tmp_clause" = type { ptr }
%"class.sat::scc" = type { ptr, i8, i8, i32, i32, %"class.sat::big" }
%"class.sat::big" = type { ptr, i32, %class.vector.123, %class.svector.11, %class.svector.124, %class.svector.124, %class.svector.63, %class.svector.63, i8, i8, %class.vector.123 }
%class.svector.124 = type { %class.vector.125 }
%class.vector.125 = type { ptr }
%"class.sat::asymm_branch" = type { ptr, %class.params_ref, i64, %class.random_gen, i32, i32, i8, i32, i32, i8, i8, i64, i32, i32, i32, %class.svector.63, %class.svector.63, %class.svector.126, %class.svector.126, %class.svector.63, %class.svector.63 }
%class.svector.126 = type { %class.vector.127 }
%class.vector.127 = type { ptr }
%"class.sat::probing" = type { ptr, i32, %"class.sat::literal_set", %class.svector.63, i32, i8, i32, i8, i8, i64, i32, %class.vector.128, %class.svector.129, %"class.sat::big" }
%class.vector.128 = type { ptr }
%"class.sat::mus" = type <{ ptr, %class.svector.63, %class.svector.63, i8, [7 x i8], %class.svector.110, i32, [4 x i8] }>
%"class.sat::justification" = type <{ i32, [4 x i8], i64, i32, [4 x i8] }>
%class.vector.131 = type { ptr }
%class.svector.110 = type { %class.vector.111 }
%class.vector.111 = type { ptr }
%class.svector.132 = type { %class.vector.133 }
%class.vector.133 = type { ptr }
%"struct.sat::backoff" = type { i32, i32, i32, i32, i32 }
%class.var_queue = type { %class.heap }
%class.heap = type { %"struct.var_queue<svector<unsigned int>>::lt", %class.svector.124, %class.svector.124 }
%"struct.var_queue<svector<unsigned int>>::lt" = type { ptr }
%class.ema = type { double, double, double, i32, i32 }
%class.svector.121 = type { %class.vector.122 }
%class.vector.122 = type { ptr }
%class.visit_helper = type { %class.svector.1, i32, i32 }
%class.svector.136 = type { %class.vector.137 }
%class.vector.137 = type { ptr }
%class.scoped_limit_trail = type { %class.svector.1, i32, i32 }
%class.stopwatch = type <{ %"class.std::chrono::time_point", %"class.std::chrono::duration", i8, [7 x i8] }>
%"class.std::chrono::time_point" = type { %"class.std::chrono::duration" }
%"class.std::chrono::duration" = type { i64 }
%"struct.sat::no_drat_params" = type { %class.params_ref }
%class.scoped_ptr.138 = type { ptr }
%"class.sat::literal_set" = type { %class.tracked_uint_set }
%class.svector.134 = type { %class.vector.135 }
%class.vector.135 = type { ptr }
%class.svector.119 = type { %class.vector.120 }
%class.vector.120 = type { ptr }
%class.approx_set_tpl = type { i32 }
%class.svector.129 = type { %class.vector.130 }
%class.vector.130 = type { ptr }
%class.u_map = type { %class.map.139 }
%class.map.139 = type { %class.table2map.140 }
%class.table2map.140 = type { %class.core_hashtable.141 }
%class.core_hashtable.141 = type <{ ptr, i32, i32, i32, [4 x i8] }>
%"class.sat::drat" = type { ptr, %class.svector.104, ptr, %"class.sat::clause_allocator", ptr, ptr, %class.svector.106, %class.svector.108, %class.vector.19, %class.svector.110, i8, i8, i8, i8, i8, %"struct.sat::drat::stats" }
%class.svector.104 = type { %class.vector.105 }
%class.vector.105 = type { ptr }
%class.svector.106 = type { %class.vector.107 }
%class.vector.107 = type { ptr }
%class.svector.108 = type { %class.vector.109 }
%class.vector.109 = type { ptr }
%"struct.sat::drat::stats" = type { i32, i32, i32, i32 }
%class.svector.63 = type { %class.vector.64 }
%class.vector.64 = type { ptr }
%class.vector.123 = type { ptr }

; Function Attrs: mustprogress nounwind uwtable
define linkonce_odr hidden noundef i32 @_ZNK6vectorIN3sat13justificationELb0EjE4sizeEv(ptr noundef nonnull align 8 dereferenceable(8) %0) #6 comdat align 2 {
  %2 = alloca i32, align 4
  %3 = alloca ptr, align 8
  store ptr %0, ptr %3, align 8, !tbaa !503
  %4 = load ptr, ptr %3, align 8
  %5 = getelementptr inbounds nuw %class.vector.133, ptr %4, i32 0, i32 0
  %6 = load ptr, ptr %5, align 8, !tbaa !505
  %7 = icmp eq ptr %6, null
  br i1 %7, label %8, label %9

8:                                                ; preds = %1
  store i32 0, ptr %2, align 4
  br label %14

9:                                                ; preds = %1
  %10 = getelementptr inbounds nuw %class.vector.133, ptr %4, i32 0, i32 0
  %11 = load ptr, ptr %10, align 8, !tbaa !505
  %12 = getelementptr inbounds i32, ptr %11, i64 -1
  %13 = load i32, ptr %12, align 4, !tbaa !416
  store i32 %13, ptr %2, align 4
  br label %14

14:                                               ; preds = %9, %8
  %15 = load i32, ptr %2, align 4
  ret i32 %15
}

; Function Attrs: mustprogress uwtable
define linkonce_odr hidden noundef i32 @_ZNK3sat6solver8num_varsEv(ptr noundef nonnull align 8 dereferenceable(4264) %0) #4 comdat align 2 {
  %2 = alloca ptr, align 8
  store ptr %0, ptr %2, align 8, !tbaa !411
  %3 = load ptr, ptr %2, align 8
  %4 = getelementptr inbounds nuw %"class.sat::solver", ptr %3, i32 0, i32 37
  %5 = call noundef i32 @_ZNK6vectorIN3sat13justificationELb0EjE4sizeEv(ptr noundef nonnull align 8 dereferenceable(8) %4)
  ret i32 %5
}

; Function Attrs: mustprogress nounwind uwtable
define linkonce_odr hidden noundef nonnull align 8 dereferenceable(4264) ptr @_ZNK3sat9extension1sEv(ptr noundef nonnull align 8 dereferenceable(32) %0) #6 comdat align 2 {
  %2 = alloca ptr, align 8
  store ptr %0, ptr %2, align 8, !tbaa !409
  %3 = load ptr, ptr %2, align 8
  %4 = getelementptr inbounds nuw %"class.sat::extension", ptr %3, i32 0, i32 4
  %5 = load ptr, ptr %4, align 8, !tbaa !410
  ret ptr %5
}

; Function Attrs: mustprogress uwtable
define hidden noundef i32 @_ZNK3sls6solver17get_num_bool_varsEv(ptr noundef nonnull align 8 dereferenceable(160) %0) unnamed_addr #4 align 2 {
  %2 = alloca ptr, align 8
  store ptr %0, ptr %2, align 8, !tbaa !3
  %3 = load ptr, ptr %2, align 8
  %4 = call noundef nonnull align 8 dereferenceable(4264) ptr @_ZNK3sat9extension1sEv(ptr noundef nonnull align 8 dereferenceable(32) %3)
  %5 = call noundef i32 @_ZNK3sat6solver8num_varsEv(ptr noundef nonnull align 8 dereferenceable(4264) %4)
  ret i32 %5
}