; Function Attrs: mustprogress nofree norecurse nosync nounwind willreturn memory(read, inaccessiblemem: none) uwtable
define hidden noundef i32 @_ZNK3sls6solver17get_num_bool_varsEv(ptr noundef nonnull readonly align 8 captures(none) dereferenceable(160) %0) unnamed_addr #14 align 2 {
  %2 = getelementptr inbounds nuw i8, ptr %0, i64 24
  %3 = load ptr, ptr %2, align 8, !tbaa !407
  %4 = getelementptr inbounds nuw i8, ptr %3, i64 3296
  %5 = load ptr, ptr %4, align 8, !tbaa !417
  %6 = icmp eq ptr %5, null
  br i1 %6, label %_ZNK3sat6solver8num_varsEv.exit, label %7

7:                                                ; preds = %1
  %8 = getelementptr inbounds i8, ptr %5, i64 -4
  %9 = load i32, ptr %8, align 4, !tbaa !413
  br label %_ZNK3sat6solver8num_varsEv.exit

_ZNK3sat6solver8num_varsEv.exit:                  ; preds = %1, %7
  %.0.i.i = phi i32 [ %9, %7 ], [ 0, %1 ]
  ret i32 %.0.i.i
}